; Function Attrs: mustprogress nounwind uwtable
define dso_local void @_ZN32btSphereSphereCollisionAlgorithmD0Ev(ptr noundef nonnull align 8 dereferenceable(32) %this) unnamed_addr #3 align 2 personality ptr @__gxx_personality_v0 {
entry:
  store ptr getelementptr inbounds ({ [7 x ptr] }, ptr @_ZTV32btSphereSphereCollisionAlgorithm, i64 0, i32 0, i64 2), ptr %this, align 8
  %m_ownManifold.i = getelementptr inbounds i8, ptr %this, i64 16
  %0 = load i8, ptr %m_ownManifold.i, align 8
  %1 = and i8 %0, 1
  %tobool.not.i = icmp eq i8 %1, 0
  br i1 %tobool.not.i, label %_ZN32btSphereSphereCollisionAlgorithmD2Ev.exit, label %if.then.i

if.then.i:                                        ; preds = %entry
  %m_manifoldPtr.i = getelementptr inbounds i8, ptr %this, i64 24
  %2 = load ptr, ptr %m_manifoldPtr.i, align 8
  %tobool2.not.i = icmp eq ptr %2, null
  br i1 %tobool2.not.i, label %_ZN32btSphereSphereCollisionAlgorithmD2Ev.exit, label %if.then3.i

if.then3.i:                                       ; preds = %if.then.i
  %m_dispatcher.i = getelementptr inbounds i8, ptr %this, i64 8
  %3 = load ptr, ptr %m_dispatcher.i, align 8
  %vtable.i = load ptr, ptr %3, align 8
  %vfn.i = getelementptr inbounds i8, ptr %vtable.i, i64 32
  %4 = load ptr, ptr %vfn.i, align 8
  invoke void %4(ptr noundef nonnull align 8 dereferenceable(8) %3, ptr noundef nonnull %2)
          to label %_ZN32btSphereSphereCollisionAlgorithmD2Ev.exit unwind label %terminate.lpad.i

terminate.lpad.i:                                 ; preds = %if.then3.i
  %5 = landingpad { ptr, i32 }
          catch ptr null
  %6 = extractvalue { ptr, i32 } %5, 0
  tail call void @__clang_call_terminate(ptr %6) #12
  unreachable

_ZN32btSphereSphereCollisionAlgorithmD2Ev.exit:   ; preds = %entry, %if.then.i, %if.then3.i
  tail call void @_ZN30btActivatingCollisionAlgorithmD2Ev(ptr noundef nonnull align 8 dereferenceable(16) %this) #11
  tail call void @_ZdlPv(ptr noundef nonnull %this) #13
  ret void
}